target datalayout = "e-m:e-p270:32:32-p271:32:32-p272:64:64-i64:64-i128:128-f80:128-n8:16:32:64-S128"
target triple = "x86_64-pc-linux-gnu"

%struct.Pdr_Set_t_ = type { i64, i32, i32, i32, [0 x i32] }

; Function Attrs: nounwind uwtable
define ptr @Pdr_SetCreateFrom(ptr noundef %0, i32 noundef %1) #0 {
  %3 = alloca ptr, align 8
  %4 = alloca i32, align 4
  %5 = alloca ptr, align 8
  %6 = alloca i32, align 4
  %7 = alloca i32, align 4
  store ptr %0, ptr %3, align 8
  store i32 %1, ptr %4, align 4
  store i32 0, ptr %7, align 4
  %8 = load ptr, ptr %3, align 8
  %9 = getelementptr inbounds %struct.Pdr_Set_t_, ptr %8, i32 0, i32 2
  %10 = load i32, ptr %9, align 4
  %11 = sub nsw i32 %10, 1
  %12 = sext i32 %11 to i64
  %13 = mul i64 %12, 4
  %14 = add i64 24, %13
  %15 = mul i64 1, %14
  %16 = call noalias ptr @malloc(i64 noundef %15) #10
  store ptr %16, ptr %5, align 8
  %17 = load ptr, ptr %3, align 8
  %18 = getelementptr inbounds %struct.Pdr_Set_t_, ptr %17, i32 0, i32 3
  %19 = load i32, ptr %18, align 8
  %20 = sub nsw i32 %19, 1
  %21 = load ptr, ptr %5, align 8
  %22 = getelementptr inbounds %struct.Pdr_Set_t_, ptr %21, i32 0, i32 3
  store i32 %20, ptr %22, align 8
  %23 = load ptr, ptr %3, align 8
  %24 = getelementptr inbounds %struct.Pdr_Set_t_, ptr %23, i32 0, i32 2
  %25 = load i32, ptr %24, align 4
  %26 = sub nsw i32 %25, 1
  %27 = load ptr, ptr %5, align 8
  %28 = getelementptr inbounds %struct.Pdr_Set_t_, ptr %27, i32 0, i32 2
  store i32 %26, ptr %28, align 4
  %29 = load ptr, ptr %5, align 8
  %30 = getelementptr inbounds %struct.Pdr_Set_t_, ptr %29, i32 0, i32 1
  store i32 1, ptr %30, align 8
  %31 = load ptr, ptr %5, align 8
  %32 = getelementptr inbounds %struct.Pdr_Set_t_, ptr %31, i32 0, i32 0
  store i64 0, ptr %32, align 8
  store i32 0, ptr %6, align 4
  br label %33

33:                                               ; preds = %77, %2
  %34 = load i32, ptr %6, align 4
  %35 = load ptr, ptr %3, align 8
  %36 = getelementptr inbounds %struct.Pdr_Set_t_, ptr %35, i32 0, i32 2
  %37 = load i32, ptr %36, align 4
  %38 = icmp slt i32 %34, %37
  br i1 %38, label %39, label %80

39:                                               ; preds = %33
  %40 = load i32, ptr %6, align 4
  %41 = load i32, ptr %4, align 4
  %42 = icmp eq i32 %40, %41
  br i1 %42, label %43, label %44

43:                                               ; preds = %39
  br label %77

44:                                               ; preds = %39
  %45 = load ptr, ptr %3, align 8
  %46 = getelementptr inbounds %struct.Pdr_Set_t_, ptr %45, i32 0, i32 4
  %47 = load i32, ptr %6, align 4
  %48 = sext i32 %47 to i64
  %49 = getelementptr inbounds [0 x i32], ptr %46, i64 0, i64 %48
  %50 = load i32, ptr %49, align 4
  %51 = load ptr, ptr %5, align 8
  %52 = getelementptr inbounds %struct.Pdr_Set_t_, ptr %51, i32 0, i32 4
  %53 = load i32, ptr %7, align 4
  %54 = add nsw i32 %53, 1
  store i32 %54, ptr %7, align 4
  %55 = sext i32 %53 to i64
  %56 = getelementptr inbounds [0 x i32], ptr %52, i64 0, i64 %55
  store i32 %50, ptr %56, align 4
  %57 = load i32, ptr %6, align 4
  %58 = load ptr, ptr %3, align 8
  %59 = getelementptr inbounds %struct.Pdr_Set_t_, ptr %58, i32 0, i32 3
  %60 = load i32, ptr %59, align 8
  %61 = icmp sge i32 %57, %60
  br i1 %61, label %62, label %63

62:                                               ; preds = %44
  br label %77

63:                                               ; preds = %44
  %64 = load ptr, ptr %3, align 8
  %65 = getelementptr inbounds %struct.Pdr_Set_t_, ptr %64, i32 0, i32 4
  %66 = load i32, ptr %6, align 4
  %67 = sext i32 %66 to i64
  %68 = getelementptr inbounds [0 x i32], ptr %65, i64 0, i64 %67
  %69 = load i32, ptr %68, align 4
  %70 = srem i32 %69, 63
  %71 = zext i32 %70 to i64
  %72 = shl i64 1, %71
  %73 = load ptr, ptr %5, align 8
  %74 = getelementptr inbounds %struct.Pdr_Set_t_, ptr %73, i32 0, i32 0
  %75 = load i64, ptr %74, align 8
  %76 = or i64 %75, %72
  store i64 %76, ptr %74, align 8
  br label %77

77:                                               ; preds = %63, %62, %43
  %78 = load i32, ptr %6, align 4
  %79 = add nsw i32 %78, 1
  store i32 %79, ptr %6, align 4
  br label %33, !llvm.loop !9

80:                                               ; preds = %33
  %81 = load ptr, ptr %5, align 8
  ret ptr %81
}