; Function Attrs: nofree nounwind memory(readwrite, argmem: read) uwtable
define noalias noundef ptr @Pdr_SetCreateFrom(ptr noundef readonly captures(none) %0, i32 noundef %1) local_unnamed_addr #4 {
  %3 = getelementptr inbounds nuw i8, ptr %0, i64 12
  %4 = load i32, ptr %3, align 4
  %5 = add nsw i32 %4, -1
  %6 = sext i32 %5 to i64
  %7 = shl nsw i64 %6, 2
  %8 = add nsw i64 %7, 24
  %9 = tail call noalias ptr @malloc(i64 noundef %8) #26
  %10 = getelementptr inbounds nuw i8, ptr %0, i64 16
  %11 = load i32, ptr %10, align 8
  %12 = add nsw i32 %11, -1
  %13 = getelementptr inbounds nuw i8, ptr %9, i64 16
  store i32 %12, ptr %13, align 8
  %14 = getelementptr inbounds nuw i8, ptr %9, i64 12
  store i32 %5, ptr %14, align 4
  %15 = getelementptr inbounds nuw i8, ptr %9, i64 8
  store i32 1, ptr %15, align 8
  store i64 0, ptr %9, align 8
  %16 = icmp sgt i32 %4, 0
  br i1 %16, label %.lr.ph, label %._crit_edge

.lr.ph:                                           ; preds = %2
  %17 = getelementptr inbounds nuw i8, ptr %0, i64 20
  %18 = getelementptr inbounds nuw i8, ptr %9, i64 20
  %19 = sext i32 %11 to i64
  %20 = zext i32 %1 to i64
  %wide.trip.count = zext nneg i32 %4 to i64
  br label %21

21:                                               ; preds = %.lr.ph, %35
  %indvars.iv = phi i64 [ 0, %.lr.ph ], [ %indvars.iv.next, %35 ]
  %.023 = phi i32 [ 0, %.lr.ph ], [ %.1, %35 ]
  %22 = icmp eq i64 %indvars.iv, %20
  br i1 %22, label %35, label %23

23:                                               ; preds = %21
  %24 = getelementptr inbounds nuw [0 x i32], ptr %17, i64 0, i64 %indvars.iv
  %25 = load i32, ptr %24, align 4
  %26 = add nsw i32 %.023, 1
  %27 = sext i32 %.023 to i64
  %28 = getelementptr inbounds [0 x i32], ptr %18, i64 0, i64 %27
  store i32 %25, ptr %28, align 4
  %.not = icmp slt i64 %indvars.iv, %19
  br i1 %.not, label %29, label %35

29:                                               ; preds = %23
  %30 = srem i32 %25, 63
  %31 = zext nneg i32 %30 to i64
  %32 = shl nuw i64 1, %31
  %33 = load i64, ptr %9, align 8
  %34 = or i64 %33, %32
  store i64 %34, ptr %9, align 8
  br label %35

35:                                               ; preds = %23, %21, %29
  %.1 = phi i32 [ %.023, %21 ], [ %26, %23 ], [ %26, %29 ]
  %indvars.iv.next = add nuw nsw i64 %indvars.iv, 1
  %exitcond.not = icmp eq i64 %indvars.iv.next, %wide.trip.count
  br i1 %exitcond.not, label %._crit_edge, label %21, !llvm.loop !9

._crit_edge:                                      ; preds = %35, %2
  ret ptr %9
}